; Function Attrs: mustprogress nounwind uwtable
define hidden void @_ZN14PhaseIdealLoop8set_idomEP4NodeS1_j(ptr nocapture noundef nonnull align 8 dereferenceable(237) %0, ptr nocapture noundef readonly %1, ptr noundef %2, i32 noundef %3) local_unnamed_addr #0 align 2 {
  %5 = getelementptr inbounds i8, ptr %1, i64 40
  %6 = load i32, ptr %5, align 8
  %7 = getelementptr inbounds i8, ptr %0, i64 196
  %8 = load i32, ptr %7, align 4
  %.not = icmp ult i32 %6, %8
  br i1 %.not, label %35, label %9

9:                                                ; preds = %4
  %10 = add i32 %6, 1
  %11 = tail call range(i32 0, 33) i32 @llvm.ctpop.i32(i32 %10)
  %or.cond.i.i = icmp eq i32 %11, 1
  %12 = tail call range(i32 0, 33) i32 @llvm.ctlz.i32(i32 %10, i1 true)
  %13 = sub nuw nsw i32 32, %12
  %14 = shl nuw i32 1, %13
  %.0.i.i = select i1 %or.cond.i.i, i32 %10, i32 %14
  %15 = getelementptr inbounds i8, ptr %0, i64 200
  %16 = load ptr, ptr %15, align 8
  %17 = zext i32 %8 to i64
  %18 = shl nuw nsw i64 %17, 3
  %19 = zext i32 %.0.i.i to i64
  %20 = shl nuw nsw i64 %19, 3
  %21 = tail call noundef ptr @_Z25resource_reallocate_bytesPcmmN17AllocFailStrategy13AllocFailEnumE(ptr noundef %16, i64 noundef %18, i64 noundef %20, i32 noundef 0) #15
  store ptr %21, ptr %15, align 8
  %22 = getelementptr inbounds i8, ptr %0, i64 208
  %23 = load ptr, ptr %22, align 8
  %24 = load i32, ptr %7, align 4
  %25 = zext i32 %24 to i64
  %26 = shl nuw nsw i64 %25, 2
  %27 = shl nuw nsw i64 %19, 2
  %28 = tail call noundef ptr @_Z25resource_reallocate_bytesPcmmN17AllocFailStrategy13AllocFailEnumE(ptr noundef %23, i64 noundef %26, i64 noundef %27, i32 noundef 0) #15
  store ptr %28, ptr %22, align 8
  %29 = load i32, ptr %7, align 4
  %30 = zext i32 %29 to i64
  %31 = getelementptr inbounds i32, ptr %28, i64 %30
  %32 = sub i32 %.0.i.i, %29
  %33 = zext i32 %32 to i64
  %34 = shl nuw nsw i64 %33, 2
  tail call void @llvm.memset.p0.i64(ptr align 4 %31, i8 0, i64 %34, i1 false)
  store i32 %.0.i.i, ptr %7, align 4
  br label %35

35:                                               ; preds = %9, %4
  %36 = getelementptr inbounds i8, ptr %0, i64 200
  %37 = load ptr, ptr %36, align 8
  %38 = zext i32 %6 to i64
  %39 = getelementptr inbounds ptr, ptr %37, i64 %38
  store ptr %2, ptr %39, align 8
  %40 = getelementptr inbounds i8, ptr %0, i64 208
  %41 = load ptr, ptr %40, align 8
  %42 = getelementptr inbounds i32, ptr %41, i64 %38
  store i32 %3, ptr %42, align 4
  ret void
}